; Function Attrs: mustprogress nofree norecurse nosync nounwind willreturn memory(argmem: readwrite) uwtable
define void @_Z18gmx_setup_nodecommP8_IO_FILEP9t_commrec(ptr nocapture noundef readnone %0, ptr nocapture noundef %1) local_unnamed_addr #4 {
  %3 = getelementptr inbounds i8, ptr %1, i64 56
  store i8 0, ptr %3, align 8
  %4 = getelementptr inbounds i8, ptr %1, i64 12
  %5 = load i32, ptr %4, align 4
  %6 = getelementptr inbounds i8, ptr %1, i64 72
  store i32 %5, ptr %6, align 8
  ret void
}